target datalayout = "e-m:e-p270:32:32-p271:32:32-p272:64:64-i64:64-i128:128-f80:128-n8:16:32:64-S128"
target triple = "x86_64-pc-linux-gnu"

%class.ptr_vector = type { %class.vector }
%class.vector = type { ptr }
%class.ptr_vector.3 = type { %class.vector.4 }
%class.vector.4 = type { ptr }
%class.ast_mark = type { ptr, %class.obj_mark, %class.obj_mark.15 }
%class.obj_mark = type { [8 x i8], %class.bit_vector }
%class.bit_vector = type { i32, i32, ptr }
%class.obj_mark.15 = type { [8 x i8], %class.bit_vector }
%class.ptr_vector.19 = type { %class.vector.20 }
%class.vector.20 = type { ptr }
%"class.polymorphism::inst" = type { ptr, ptr, %"class.polymorphism::util", %class.ref_vector.0, %class.obj_map.5, %class.obj_map.10, %class.ref_vector.0, i32, %class.ast_mark, %class.ref_vector.16, i32, [4 x i8], %class.obj_hashtable }
%"class.polymorphism::util" = type <{ ptr, %class.ref_vector, %class.obj_map, i32, [4 x i8] }>
%class.ref_vector = type { %class.ref_vector_core }
%class.ref_vector_core = type { %class.ref_manager_wrapper, %class.ptr_vector }
%class.ref_manager_wrapper = type { ptr }
%class.obj_map = type { %class.core_hashtable }
%class.core_hashtable = type <{ ptr, i32, i32, i32, [4 x i8] }>
%class.obj_map.5 = type { %class.core_hashtable.6 }
%class.core_hashtable.6 = type <{ ptr, i32, i32, i32, [4 x i8] }>
%class.obj_map.10 = type { %class.core_hashtable.11 }
%class.core_hashtable.11 = type <{ ptr, i32, i32, i32, [4 x i8] }>
%class.ref_vector.0 = type { %class.ref_vector_core.1 }
%class.ref_vector_core.1 = type { %class.ref_manager_wrapper.2, %class.ptr_vector.3 }
%class.ref_manager_wrapper.2 = type { ptr }
%class.ref_vector.16 = type { %class.ref_vector_core.17 }
%class.ref_vector_core.17 = type { %class.ref_manager_wrapper.18, %class.ptr_vector.19 }
%class.ref_manager_wrapper.18 = type { ptr }
%class.obj_hashtable = type { %class.core_hashtable.base.22, [4 x i8] }
%class.core_hashtable.base.22 = type <{ ptr, i32, i32, i32 }>

; Function Attrs: mustprogress nounwind uwtable
define linkonce_odr hidden void @_ZN6vectorIP9func_declLb0EjEC2Ev(ptr noundef nonnull align 8 dereferenceable(8) %0) unnamed_addr #5 comdat align 2 {
  %2 = alloca ptr, align 8
  store ptr %0, ptr %2, align 8, !tbaa !140
  %3 = load ptr, ptr %2, align 8
  %4 = getelementptr inbounds nuw %class.vector.4, ptr %3, i32 0, i32 0
  store ptr null, ptr %4, align 8, !tbaa !142
  ret void
}

; Function Attrs: mustprogress nounwind uwtable
define linkonce_odr hidden void @_ZN10ptr_vectorI9func_declEC2Ev(ptr noundef nonnull align 8 dereferenceable(8) %0) unnamed_addr #5 comdat align 2 {
  %2 = alloca ptr, align 8
  store ptr %0, ptr %2, align 8, !tbaa !54
  %3 = load ptr, ptr %2, align 8
  call void @_ZN6vectorIP9func_declLb0EjEC2Ev(ptr noundef nonnull align 8 dereferenceable(8) %3) #3
  ret void
}

; Function Attrs: mustprogress uwtable
define hidden void @_ZN12polymorphism4inst22collect_instantiationsEP4expr(ptr noundef nonnull align 8 dereferenceable(264) %0, ptr noundef %1) #4 align 2 personality ptr @__gxx_personality_v0 {
  %3 = alloca ptr, align 8
  %4 = alloca ptr, align 8
  %5 = alloca %class.ptr_vector.3, align 8
  %6 = alloca ptr, align 8
  %7 = alloca i32, align 4
  store ptr %0, ptr %3, align 8, !tbaa !3
  store ptr %1, ptr %4, align 8, !tbaa !8
  %8 = load ptr, ptr %3, align 8
  call void @llvm.lifetime.start.p0(i64 8, ptr %5) #3
  call void @_ZN10ptr_vectorI9func_declEC2Ev(ptr noundef nonnull align 8 dereferenceable(8) %5) #3
  %9 = getelementptr inbounds nuw %"class.polymorphism::inst", ptr %8, i32 0, i32 2
  %10 = load ptr, ptr %4, align 8, !tbaa !8
  invoke void @_ZN12polymorphism4util22collect_poly_instancesEP4exprR10ptr_vectorI9func_declE(ptr noundef nonnull align 8 dereferenceable(52) %9, ptr noundef %10, ptr noundef nonnull align 8 dereferenceable(8) %5)
          to label %11 unwind label %14

11:                                               ; preds = %2
  %12 = load ptr, ptr %4, align 8, !tbaa !8
  invoke void @_ZN12polymorphism4inst18add_instantiationsEP4exprRK10ptr_vectorI9func_declE(ptr noundef nonnull align 8 dereferenceable(264) %8, ptr noundef %12, ptr noundef nonnull align 8 dereferenceable(8) %5)
          to label %13 unwind label %14

13:                                               ; preds = %11
  call void @_ZN6vectorIP9func_declLb0EjED2Ev(ptr noundef nonnull align 8 dereferenceable(8) %5) #3
  call void @llvm.lifetime.end.p0(i64 8, ptr %5) #3
  ret void

14:                                               ; preds = %11, %2
  %15 = landingpad { ptr, i32 }
          cleanup
  %16 = extractvalue { ptr, i32 } %15, 0
  store ptr %16, ptr %6, align 8
  %17 = extractvalue { ptr, i32 } %15, 1
  store i32 %17, ptr %7, align 4
  call void @_ZN6vectorIP9func_declLb0EjED2Ev(ptr noundef nonnull align 8 dereferenceable(8) %5) #3
  call void @llvm.lifetime.end.p0(i64 8, ptr %5) #3
  br label %18

18:                                               ; preds = %14
  %19 = load ptr, ptr %6, align 8
  %20 = load i32, ptr %7, align 4
  %21 = insertvalue { ptr, i32 } poison, ptr %19, 0
  %22 = insertvalue { ptr, i32 } %21, i32 %20, 1
  resume { ptr, i32 } %22
}