; Function Attrs: mustprogress uwtable
define hidden void @_ZN12polymorphism4inst22collect_instantiationsEP4expr(ptr noundef nonnull align 8 dereferenceable(264) %0, ptr noundef %1) local_unnamed_addr #3 align 2 personality ptr @__gxx_personality_v0 {
  %3 = alloca %class.ptr_vector.3, align 8
  call void @llvm.lifetime.start.p0(i64 8, ptr nonnull %3) #18
  store ptr null, ptr %3, align 8, !tbaa !127
  %4 = getelementptr inbounds nuw i8, ptr %0, i64 16
  invoke void @_ZN12polymorphism4util22collect_poly_instancesEP4exprR10ptr_vectorI9func_declE(ptr noundef nonnull align 8 dereferenceable(52) %4, ptr noundef %1, ptr noundef nonnull align 8 dereferenceable(8) %3)
          to label %5 unwind label %13

5:                                                ; preds = %2
  invoke void @_ZN12polymorphism4inst18add_instantiationsEP4exprRK10ptr_vectorI9func_declE(ptr noundef nonnull align 8 dereferenceable(264) %0, ptr poison, ptr noundef nonnull align 8 dereferenceable(8) %3)
          to label %6 unwind label %13

6:                                                ; preds = %5
  %7 = load ptr, ptr %3, align 8, !tbaa !127
  %.not.i.i = icmp eq ptr %7, null
  br i1 %.not.i.i, label %_ZN6vectorIP9func_declLb0EjED2Ev.exit, label %8

8:                                                ; preds = %6
  %9 = getelementptr inbounds i8, ptr %7, i64 -8
  invoke void @_ZN6memory10deallocateEPv(ptr noundef nonnull %9)
          to label %_ZN6vectorIP9func_declLb0EjED2Ev.exit unwind label %10

10:                                               ; preds = %8
  %11 = landingpad { ptr, i32 }
          catch ptr null
  %12 = extractvalue { ptr, i32 } %11, 0
  call void @__clang_call_terminate(ptr %12) #19
  unreachable

_ZN6vectorIP9func_declLb0EjED2Ev.exit:            ; preds = %6, %8
  call void @llvm.lifetime.end.p0(i64 8, ptr nonnull %3) #18
  ret void

13:                                               ; preds = %5, %2
  %14 = landingpad { ptr, i32 }
          cleanup
  call void @_ZN6vectorIP9func_declLb0EjED2Ev(ptr noundef nonnull align 8 dereferenceable(8) %3) #18
  call void @llvm.lifetime.end.p0(i64 8, ptr nonnull %3) #18
  resume { ptr, i32 } %14
}